Certificate:
    Data:
        Version: 3 (0x2)
        Serial Number: 1 (0x1)
    Signature Algorithm: sha256WithRSAEncryption
        Issuer: CN=devcert
        Validity
            Not Before: Apr 30 10:18:01 2020 GMT
            Not After : Aug  3 10:18:01 2022 GMT
        Subject: CN=localhost
        Subject Public Key Info:
            Public Key Algorithm: rsaEncryption
                Public-Key: (2048 bit)
                Modulus:
                    00:ae:64:68:ef:9c:09:46:eb:92:ab:c4:d4:93:6c:
                    57:54:24:e5:1c:f3:d6:f1:6f:da:ac:e8:ab:db:a1:
                    3f:d2:ab:06:29:3c:b0:53:d6:0f:9c:cf:58:78:d0:
                    5a:84:30:e0:92:40:32:a9:60:2e:80:23:68:e2:de:
                    66:a6:48:cc:2a:59:2e:f6:64:7b:be:5d:f6:55:82:
                    98:51:90:ca:db:73:1f:7b:43:fc:79:ae:b5:d6:57:
                    f3:cc:9e:9e:cf:b6:cf:e4:0b:e9:e8:4a:c0:d3:be:
                    79:65:8a:97:77:61:b0:5a:2b:e9:d8:58:c8:bf:d5:
                    f0:c9:a1:ab:01:f5:75:40:7e:62:15:eb:2e:4c:55:
                    1f:ec:55:4a:22:6e:62:7a:e3:50:26:51:1f:d1:0d:
                    27:35:d3:cf:3b:dc:be:5d:07:c5:6c:7f:ec:f5:8c:
                    35:90:a1:f1:bb:d5:4c:b6:60:16:88:13:8e:1d:ff:
                    8c:8d:1f:ba:6b:76:2e:f0:41:95:0d:e5:0c:03:52:
                    5f:8b:e5:cc:90:b4:64:5d:f4:e2:37:58:66:a4:22:
                    e5:56:35:26:3f:88:b0:12:47:71:9a:7f:51:73:4d:
                    74:76:a8:47:56:c4:96:16:a4:8d:ab:89:31:1e:df:
                    e8:c3:f6:b2:6e:0f:db:6c:ea:bf:15:03:0c:a8:99:
                    9a:ad
                Exponent: 65537 (0x10001)
        X509v3 extensions:
            X509v3 Basic Constraints: critical
                CA:FALSE
            X509v3 Subject Key Identifier: 
                64:FF:07:D2:B9:5C:8C:8D:7F:F1:CF:81:0A:AD:AB:2B:C8:30:9E:AC
            X509v3 Authority Key Identifier: 
                keyid:93:B8:6C:90:A4:97:42:C4:6E:A1:63:D3:D1:70:BF:1D:FB:FE:07:B5
                DirName:/CN=devcert
                serial:9E:C7:55:5D:8F:81:D3:92

            X509v3 Key Usage: critical
                Digital Signature, Key Encipherment
            X509v3 Extended Key Usage: 
                TLS Web Server Authentication
            X509v3 Subject Alternative Name: 
                DNS:localhost, DNS:*.localhost
    Signature Algorithm: sha256WithRSAEncryption
         a6:d8:90:8f:4d:12:37:1c:1f:4e:35:87:e4:70:4d:8d:01:ba:
         01:e4:78:d6:aa:f6:75:94:e2:80:93:f0:68:0d:0f:b9:2e:98:
         ae:b9:26:55:27:3b:78:11:26:87:59:dd:e6:3a:df:3b:67:8d:
         fb:72:93:34:5b:57:65:06:ca:31:87:49:79:f4:a8:b7:7a:c3:
         b0:e3:af:9d:c3:fe:41:b7:52:12:27:c3:2b:48:86:e7:00:4c:
         86:c7:f3:19:51:30:92:2a:bd:58:67:f6:09:c3:49:96:18:91:
         3f:15:64:2f:ae:99:6c:d8:78:2a:e7:c1:b8:55:91:bf:88:2a:
         cd:b0:58:83:43:e4:84:0a:31:2d:09:d9:d1:51:37:88:1d:e0:
         a8:53:3e:cc:55:84:11:01:87:ce:b9:60:8a:94:d1:66:e5:87:
         b1:6a:87:07:71:92:44:af:84:33:a1:d1:e2:ce:e4:1e:b9:ed:
         d3:b0:2a:4e:8f:5a:16:99:86:4b:24:84:2a:5f:7a:e5:07:52:
         91:77:aa:33:6d:ad:50:0d:12:bf:5d:b9:e6:bd:ca:e0:a0:e8:
         51:42:7e:af:79:f2:ab:06:8e:6b:af:00:79:95:0a:e2:6b:3d:
         0c:8f:a1:9c:fe:4c:ad:fc:7a:ab:9a:4c:de:71:16:a3:b9:c3:
         87:18:a7:3a
-----BEGIN CERTIFICATE-----
MIIDXjCCAkagAwIBAgIBATANBgkqhkiG9w0BAQsFADASMRAwDgYDVQQDDAdkZXZj
ZXJ0MB4XDTIwMDQzMDEwMTgwMVoXDTIyMDgwMzEwMTgwMVowFDESMBAGA1UEAwwJ
bG9jYWxob3N0MIIBIjANBgkqhkiG9w0BAQEFAAOCAQ8AMIIBCgKCAQEArmRo75wJ
RuuSq8TUk2xXVCTlHPPW8W/arOir26E/0qsGKTywU9YPnM9YeNBahDDgkkAyqWAu
gCNo4t5mpkjMKlku9mR7vl32VYKYUZDK23Mfe0P8ea611lfzzJ6ez7bP5Avp6ErA
0755ZYqXd2GwWivp2FjIv9XwyaGrAfV1QH5iFesuTFUf7FVKIm5ieuNQJlEf0Q0n
NdPPO9y+XQfFbH/s9Yw1kKHxu9VMtmAWiBOOHf+MjR+6a3Yu8EGVDeUMA1Jfi+XM
kLRkXfTiN1hmpCLlVjUmP4iwEkdxmn9Rc010dqhHVsSWFqSNq4kxHt/ow/aybg/b
bOq/FQMMqJmarQIDAQABo4G8MIG5MAwGA1UdEwEB/wQCMAAwHQYDVR0OBBYEFGT/
B9K5XIyNf/HPgQqtqyvIMJ6sMEIGA1UdIwQ7MDmAFJO4bJCkl0LEbqFj09Fwvx37
/ge1oRakFDASMRAwDgYDVQQDDAdkZXZjZXJ0ggkAnsdVXY+B05IwDgYDVR0PAQH/
BAQDAgWgMBMGA1UdJQQMMAoGCCsGAQUFBwMBMCEGA1UdEQQaMBiCCWxvY2FsaG9z
dIILKi5sb2NhbGhvc3QwDQYJKoZIhvcNAQELBQADggEBAKbYkI9NEjccH041h+Rw
TY0BugHkeNaq9nWU4oCT8GgND7kumK65JlUnO3gRJodZ3eY63ztnjftykzRbV2UG
yjGHSXn0qLd6w7Djr53D/kG3UhInwytIhucATIbH8xlRMJIqvVhn9gnDSZYYkT8V
ZC+umWzYeCrnwbhVkb+IKs2wWIND5IQKMS0J2dFRN4gd4KhTPsxVhBEBh865YIqU
0Wblh7FqhwdxkkSvhDOh0eLO5B657dOwKk6PWhaZhkskhCpfeuUHUpF3qjNtrVAN
Er9duea9yuCg6FFCfq958qsGjmuvAHmVCuJrPQyPoZz+TK38equaTN5xFqO5w4cY
pzo=
-----END CERTIFICATE-----
